target datalayout = "e-m:e-p270:32:32-p271:32:32-p272:64:64-i64:64-i128:128-f80:128-n8:16:32:64-S128"
target triple = "x86_64-pc-linux-gnu"

%struct.fetch_config = type { ptr, ptr }
%struct.config_context = type { ptr }

@.str.1 = private unnamed_addr constant [52 x i8] c"negative values not allowed for submodule.fetchJobs\00", align 1
@.str.13 = private unnamed_addr constant [10 x i8] c"on-demand\00", align 1
@.str.14 = private unnamed_addr constant [20 x i8] c"bad %s argument: %s\00", align 1
@.str.41 = private unnamed_addr constant [20 x i8] c"submodule.fetchjobs\00", align 1
@.str.42 = private unnamed_addr constant [24 x i8] c"fetch.recursesubmodules\00", align 1

; Function Attrs: nounwind uwtable
define internal i32 @parse_fetch_recurse(ptr noundef %0, ptr noundef %1, i32 noundef %2) #0 {
  %4 = alloca i32, align 4
  %5 = alloca ptr, align 8
  %6 = alloca ptr, align 8
  %7 = alloca i32, align 4
  store ptr %0, ptr %5, align 8, !tbaa !13
  store ptr %1, ptr %6, align 8, !tbaa !13
  store i32 %2, ptr %7, align 4, !tbaa !17
  %8 = load ptr, ptr %6, align 8, !tbaa !13
  %9 = call i32 @git_parse_maybe_bool(ptr noundef %8)
  switch i32 %9, label %12 [
    i32 1, label %10
    i32 0, label %11
  ]

10:                                               ; preds = %3
  store i32 2, ptr %4, align 4
  br label %24

11:                                               ; preds = %3
  store i32 0, ptr %4, align 4
  br label %24

12:                                               ; preds = %3
  %13 = load ptr, ptr %6, align 8, !tbaa !13
  %14 = call i32 @strcmp(ptr noundef %13, ptr noundef @.str.13) #10
  %15 = icmp ne i32 %14, 0
  br i1 %15, label %17, label %16

16:                                               ; preds = %12
  store i32 -1, ptr %4, align 4
  br label %24

17:                                               ; preds = %12
  %18 = load i32, ptr %7, align 4, !tbaa !17
  %19 = icmp ne i32 %18, 0
  br i1 %19, label %20, label %23

20:                                               ; preds = %17
  %21 = load ptr, ptr %5, align 8, !tbaa !13
  %22 = load ptr, ptr %6, align 8, !tbaa !13
  call void (ptr, ...) @die(ptr noundef @.str.14, ptr noundef %21, ptr noundef %22) #11
  unreachable

23:                                               ; preds = %17
  store i32 -3, ptr %4, align 4
  br label %24

24:                                               ; preds = %23, %16, %11, %10
  %25 = load i32, ptr %4, align 4
  ret i32 %25
}

; Function Attrs: nounwind uwtable
define dso_local i32 @parse_fetch_recurse_submodules_arg(ptr noundef %0, ptr noundef %1) #0 {
  %3 = alloca ptr, align 8
  %4 = alloca ptr, align 8
  store ptr %0, ptr %3, align 8, !tbaa !13
  store ptr %1, ptr %4, align 8, !tbaa !13
  %5 = load ptr, ptr %3, align 8, !tbaa !13
  %6 = load ptr, ptr %4, align 8, !tbaa !13
  %7 = call i32 @parse_fetch_recurse(ptr noundef %5, ptr noundef %6, i32 noundef 1)
  ret i32 %7
}

; Function Attrs: nounwind uwtable
define dso_local i32 @parse_submodule_fetchjobs(ptr noundef %0, ptr noundef %1, ptr noundef %2) #0 {
  %4 = alloca ptr, align 8
  %5 = alloca ptr, align 8
  %6 = alloca ptr, align 8
  %7 = alloca i32, align 4
  store ptr %0, ptr %4, align 8, !tbaa !13
  store ptr %1, ptr %5, align 8, !tbaa !13
  store ptr %2, ptr %6, align 8, !tbaa !21
  call void @llvm.lifetime.start.p0(i64 4, ptr %7) #9
  %8 = load ptr, ptr %4, align 8, !tbaa !13
  %9 = load ptr, ptr %5, align 8, !tbaa !13
  %10 = load ptr, ptr %6, align 8, !tbaa !21
  %11 = call i32 @git_config_int(ptr noundef %8, ptr noundef %9, ptr noundef %10)
  store i32 %11, ptr %7, align 4, !tbaa !17
  %12 = load i32, ptr %7, align 4, !tbaa !17
  %13 = icmp slt i32 %12, 0
  br i1 %13, label %14, label %16

14:                                               ; preds = %3
  %15 = call ptr @_(ptr noundef @.str.1)
  call void (ptr, ...) @die(ptr noundef %15) #11
  unreachable

16:                                               ; preds = %3
  %17 = load i32, ptr %7, align 4, !tbaa !17
  %18 = icmp ne i32 %17, 0
  br i1 %18, label %21, label %19

19:                                               ; preds = %16
  %20 = call i32 @online_cpus()
  store i32 %20, ptr %7, align 4, !tbaa !17
  br label %21

21:                                               ; preds = %19, %16
  %22 = load i32, ptr %7, align 4, !tbaa !17
  call void @llvm.lifetime.end.p0(i64 4, ptr %7) #9
  ret i32 %22
}

; Function Attrs: nounwind uwtable
define internal i32 @gitmodules_fetch_config(ptr noundef %0, ptr noundef %1, ptr noundef %2, ptr noundef %3) #0 {
  %5 = alloca i32, align 4
  %6 = alloca ptr, align 8
  %7 = alloca ptr, align 8
  %8 = alloca ptr, align 8
  %9 = alloca ptr, align 8
  %10 = alloca ptr, align 8
  %11 = alloca i32, align 4
  store ptr %0, ptr %6, align 8, !tbaa !13
  store ptr %1, ptr %7, align 8, !tbaa !13
  store ptr %2, ptr %8, align 8, !tbaa !74
  store ptr %3, ptr %9, align 8, !tbaa !51
  call void @llvm.lifetime.start.p0(i64 8, ptr %10) #9
  %12 = load ptr, ptr %9, align 8, !tbaa !51
  store ptr %12, ptr %10, align 8, !tbaa !118
  %13 = load ptr, ptr %6, align 8, !tbaa !13
  %14 = call i32 @strcmp(ptr noundef %13, ptr noundef @.str.41) #10
  %15 = icmp ne i32 %14, 0
  br i1 %15, label %32, label %16

16:                                               ; preds = %4
  %17 = load ptr, ptr %10, align 8, !tbaa !118
  %18 = getelementptr inbounds nuw %struct.fetch_config, ptr %17, i32 0, i32 0
  %19 = load ptr, ptr %18, align 8, !tbaa !115
  %20 = icmp ne ptr %19, null
  br i1 %20, label %21, label %31

21:                                               ; preds = %16
  %22 = load ptr, ptr %6, align 8, !tbaa !13
  %23 = load ptr, ptr %7, align 8, !tbaa !13
  %24 = load ptr, ptr %8, align 8, !tbaa !74
  %25 = getelementptr inbounds nuw %struct.config_context, ptr %24, i32 0, i32 0
  %26 = load ptr, ptr %25, align 8, !tbaa !120
  %27 = call i32 @parse_submodule_fetchjobs(ptr noundef %22, ptr noundef %23, ptr noundef %26)
  %28 = load ptr, ptr %10, align 8, !tbaa !118
  %29 = getelementptr inbounds nuw %struct.fetch_config, ptr %28, i32 0, i32 0
  %30 = load ptr, ptr %29, align 8, !tbaa !115
  store i32 %27, ptr %30, align 4, !tbaa !17
  br label %31

31:                                               ; preds = %21, %16
  store i32 0, ptr %5, align 4
  store i32 1, ptr %11, align 4
  br label %51

32:                                               ; preds = %4
  %33 = load ptr, ptr %6, align 8, !tbaa !13
  %34 = call i32 @strcmp(ptr noundef %33, ptr noundef @.str.42) #10
  %35 = icmp ne i32 %34, 0
  br i1 %35, label %49, label %36

36:                                               ; preds = %32
  %37 = load ptr, ptr %10, align 8, !tbaa !118
  %38 = getelementptr inbounds nuw %struct.fetch_config, ptr %37, i32 0, i32 1
  %39 = load ptr, ptr %38, align 8, !tbaa !117
  %40 = icmp ne ptr %39, null
  br i1 %40, label %41, label %48

41:                                               ; preds = %36
  %42 = load ptr, ptr %6, align 8, !tbaa !13
  %43 = load ptr, ptr %7, align 8, !tbaa !13
  %44 = call i32 @parse_fetch_recurse_submodules_arg(ptr noundef %42, ptr noundef %43)
  %45 = load ptr, ptr %10, align 8, !tbaa !118
  %46 = getelementptr inbounds nuw %struct.fetch_config, ptr %45, i32 0, i32 1
  %47 = load ptr, ptr %46, align 8, !tbaa !117
  store i32 %44, ptr %47, align 4, !tbaa !17
  br label %48

48:                                               ; preds = %41, %36
  store i32 0, ptr %5, align 4
  store i32 1, ptr %11, align 4
  br label %51

49:                                               ; preds = %32
  br label %50

50:                                               ; preds = %49
  store i32 0, ptr %5, align 4
  store i32 1, ptr %11, align 4
  br label %51

51:                                               ; preds = %50, %48, %31
  call void @llvm.lifetime.end.p0(i64 8, ptr %10) #9
  %52 = load i32, ptr %5, align 4
  ret i32 %52
}