; Function Attrs: nounwind uwtable
define internal noundef i32 @gitmodules_fetch_config(ptr noundef %0, ptr noundef %1, ptr noundef readonly captures(none) %2, ptr noundef readonly captures(none) %3) #0 {
  %5 = tail call i32 @strcmp(ptr noundef nonnull dereferenceable(1) %0, ptr noundef nonnull dereferenceable(20) @.str.41) #16
  %.not = icmp eq i32 %5, 0
  br i1 %.not, label %6, label %18

6:                                                ; preds = %4
  %7 = load ptr, ptr %3, align 8, !tbaa !107
  %.not12 = icmp eq ptr %7, null
  br i1 %.not12, label %30, label %8

8:                                                ; preds = %6
  %9 = load ptr, ptr %2, align 8, !tbaa !111
  %10 = tail call i32 @git_config_int(ptr noundef nonnull %0, ptr noundef %1, ptr noundef %9) #15
  %11 = icmp slt i32 %10, 0
  br i1 %11, label %12, label %14

12:                                               ; preds = %8
  %13 = tail call fastcc ptr @_(ptr noundef nonnull @.str.1)
  tail call void (ptr, ...) @die(ptr noundef %13) #17
  unreachable

14:                                               ; preds = %8
  %.not.i = icmp eq i32 %10, 0
  br i1 %.not.i, label %15, label %parse_submodule_fetchjobs.exit

15:                                               ; preds = %14
  %16 = tail call i32 @online_cpus() #15
  br label %parse_submodule_fetchjobs.exit

parse_submodule_fetchjobs.exit:                   ; preds = %14, %15
  %.0.i = phi i32 [ %10, %14 ], [ %16, %15 ]
  %17 = load ptr, ptr %3, align 8, !tbaa !107
  store i32 %.0.i, ptr %17, align 4, !tbaa !26
  br label %30

18:                                               ; preds = %4
  %19 = tail call i32 @strcmp(ptr noundef nonnull dereferenceable(1) %0, ptr noundef nonnull dereferenceable(24) @.str.42) #16
  %.not13 = icmp eq i32 %19, 0
  br i1 %.not13, label %20, label %30

20:                                               ; preds = %18
  %21 = getelementptr inbounds nuw i8, ptr %3, i64 8
  %22 = load ptr, ptr %21, align 8, !tbaa !110
  %.not14 = icmp eq ptr %22, null
  br i1 %.not14, label %30, label %23

23:                                               ; preds = %20
  %24 = tail call i32 @git_parse_maybe_bool(ptr noundef %1) #15
  switch i32 %24, label %26 [
    i32 1, label %parse_fetch_recurse_submodules_arg.exit
    i32 0, label %25
  ]

25:                                               ; preds = %23
  br label %parse_fetch_recurse_submodules_arg.exit

26:                                               ; preds = %23
  %27 = tail call i32 @strcmp(ptr noundef nonnull dereferenceable(1) %1, ptr noundef nonnull dereferenceable(10) @.str.13) #16
  %.not.i.i = icmp eq i32 %27, 0
  br i1 %.not.i.i, label %parse_fetch_recurse_submodules_arg.exit, label %28

28:                                               ; preds = %26
  tail call void (ptr, ...) @die(ptr noundef nonnull @.str.14, ptr noundef nonnull %0, ptr noundef nonnull %1) #17
  unreachable

parse_fetch_recurse_submodules_arg.exit:          ; preds = %23, %25, %26
  %.0.i.i = phi i32 [ 0, %25 ], [ 2, %23 ], [ -1, %26 ]
  %29 = load ptr, ptr %21, align 8, !tbaa !110
  store i32 %.0.i.i, ptr %29, align 4, !tbaa !26
  br label %30

30:                                               ; preds = %18, %20, %parse_fetch_recurse_submodules_arg.exit, %6, %parse_submodule_fetchjobs.exit
  ret i32 0
}